; Function Attrs: inlinehint mustprogress nounwind uwtable
define internal void @_ZN9grpc_core12_GLOBAL__N_118OutlierDetectionLb13EndpointStateD2Ev(ptr noundef nonnull align 8 captures(none) dereferenceable(112) %0) unnamed_addr #14 align 2 personality ptr @__gxx_personality_v0 {
  %2 = getelementptr inbounds nuw i8, ptr %0, i64 72
  %3 = load ptr, ptr %2, align 8, !tbaa !210
  %.not.i = icmp eq ptr %3, null
  br i1 %.not.i, label %_ZNSt10unique_ptrIN9grpc_core12_GLOBAL__N_118OutlierDetectionLb13EndpointState6BucketESt14default_deleteIS4_EED2Ev.exit, label %_ZNKSt14default_deleteIN9grpc_core12_GLOBAL__N_118OutlierDetectionLb13EndpointState6BucketEEclEPS4_.exit.i

_ZNKSt14default_deleteIN9grpc_core12_GLOBAL__N_118OutlierDetectionLb13EndpointState6BucketEEclEPS4_.exit.i: ; preds = %1
  tail call void @_ZdlPvm(ptr noundef nonnull %3, i64 noundef 16) #40
  br label %_ZNSt10unique_ptrIN9grpc_core12_GLOBAL__N_118OutlierDetectionLb13EndpointState6BucketESt14default_deleteIS4_EED2Ev.exit

_ZNSt10unique_ptrIN9grpc_core12_GLOBAL__N_118OutlierDetectionLb13EndpointState6BucketESt14default_deleteIS4_EED2Ev.exit: ; preds = %1, %_ZNKSt14default_deleteIN9grpc_core12_GLOBAL__N_118OutlierDetectionLb13EndpointState6BucketEEclEPS4_.exit.i
  store ptr null, ptr %2, align 8, !tbaa !210
  %4 = getelementptr inbounds nuw i8, ptr %0, i64 64
  %5 = load ptr, ptr %4, align 8, !tbaa !210
  %.not.i1 = icmp eq ptr %5, null
  br i1 %.not.i1, label %_ZNSt10unique_ptrIN9grpc_core12_GLOBAL__N_118OutlierDetectionLb13EndpointState6BucketESt14default_deleteIS4_EED2Ev.exit3, label %_ZNKSt14default_deleteIN9grpc_core12_GLOBAL__N_118OutlierDetectionLb13EndpointState6BucketEEclEPS4_.exit.i2

_ZNKSt14default_deleteIN9grpc_core12_GLOBAL__N_118OutlierDetectionLb13EndpointState6BucketEEclEPS4_.exit.i2: ; preds = %_ZNSt10unique_ptrIN9grpc_core12_GLOBAL__N_118OutlierDetectionLb13EndpointState6BucketESt14default_deleteIS4_EED2Ev.exit
  tail call void @_ZdlPvm(ptr noundef nonnull %5, i64 noundef 16) #40
  br label %_ZNSt10unique_ptrIN9grpc_core12_GLOBAL__N_118OutlierDetectionLb13EndpointState6BucketESt14default_deleteIS4_EED2Ev.exit3

_ZNSt10unique_ptrIN9grpc_core12_GLOBAL__N_118OutlierDetectionLb13EndpointState6BucketESt14default_deleteIS4_EED2Ev.exit3: ; preds = %_ZNSt10unique_ptrIN9grpc_core12_GLOBAL__N_118OutlierDetectionLb13EndpointState6BucketESt14default_deleteIS4_EED2Ev.exit, %_ZNKSt14default_deleteIN9grpc_core12_GLOBAL__N_118OutlierDetectionLb13EndpointState6BucketEEclEPS4_.exit.i2
  store ptr null, ptr %4, align 8, !tbaa !210
  %6 = getelementptr inbounds nuw i8, ptr %0, i64 32
  %.val = load ptr, ptr %6, align 8, !tbaa !37
  tail call fastcc void @_ZNSt8_Rb_treeIPN9grpc_core12_GLOBAL__N_118OutlierDetectionLb15SubchannelStateES4_St9_IdentityIS4_ESt4lessIS4_ESaIS4_EE8_M_eraseEPSt13_Rb_tree_nodeIS4_E(ptr noundef %.val)
  ret void
}